
acrylicPlate.elf:     file format elf32-littlearm

Sections:
Idx Name          Size      VMA       LMA       File off  Algn
  0 .isr_vector   000000c4  08000000  08000000  00010000  2**0
                  CONTENTS, ALLOC, LOAD, READONLY, DATA
  1 .text         0000077c  080000c4  080000c4  000100c4  2**2
                  CONTENTS, ALLOC, LOAD, READONLY, CODE
  2 .init_array   00000004  08000840  08000840  00010840  2**2
                  CONTENTS, ALLOC, LOAD, DATA
  3 .fini_array   00000004  08000844  08000844  00010844  2**2
                  CONTENTS, ALLOC, LOAD, DATA
  4 .data         00000000  20000000  20000000  00010848  2**0
                  CONTENTS, ALLOC, LOAD, DATA
  5 .bss          00000024  20000000  08000848  00020000  2**2
                  ALLOC
  6 ._user_heap_stack 00000080  20000024  08000848  00020024  2**0
                  ALLOC
  7 .ARM.attributes 00000028  00000000  00000000  00010848  2**0
                  CONTENTS, READONLY
  8 .debug_info   0000173a  00000000  00000000  00010870  2**0
                  CONTENTS, READONLY, DEBUGGING
  9 .debug_abbrev 00000638  00000000  00000000  00011faa  2**0
                  CONTENTS, READONLY, DEBUGGING
 10 .debug_aranges 00000288  00000000  00000000  000125e8  2**3
                  CONTENTS, READONLY, DEBUGGING
 11 .debug_ranges 00000230  00000000  00000000  00012870  2**3
                  CONTENTS, READONLY, DEBUGGING
 12 .debug_line   00000e36  00000000  00000000  00012aa0  2**0
                  CONTENTS, READONLY, DEBUGGING
 13 .debug_str    00000b44  00000000  00000000  000138d6  2**0
                  CONTENTS, READONLY, DEBUGGING
 14 .comment      0000007c  00000000  00000000  0001441a  2**0
                  CONTENTS, READONLY
 15 .debug_frame  000007f8  00000000  00000000  00014498  2**2
                  CONTENTS, READONLY, DEBUGGING

Disassembly of section .text:

080000c4 <__do_global_dtors_aux>:
 80000c4:	b510      	push	{r4, lr}
 80000c6:	4c06      	ldr	r4, [pc, #24]	; (80000e0 <__do_global_dtors_aux+0x1c>)
 80000c8:	7823      	ldrb	r3, [r4, #0]
 80000ca:	2b00      	cmp	r3, #0
 80000cc:	d107      	bne.n	80000de <__do_global_dtors_aux+0x1a>
 80000ce:	4b05      	ldr	r3, [pc, #20]	; (80000e4 <__do_global_dtors_aux+0x20>)
 80000d0:	2b00      	cmp	r3, #0
 80000d2:	d002      	beq.n	80000da <__do_global_dtors_aux+0x16>
 80000d4:	4804      	ldr	r0, [pc, #16]	; (80000e8 <__do_global_dtors_aux+0x24>)
 80000d6:	e000      	b.n	80000da <__do_global_dtors_aux+0x16>
 80000d8:	bf00      	nop
 80000da:	2301      	movs	r3, #1
 80000dc:	7023      	strb	r3, [r4, #0]
 80000de:	bd10      	pop	{r4, pc}
 80000e0:	20000000 	.word	0x20000000
 80000e4:	00000000 	.word	0x00000000
 80000e8:	08000828 	.word	0x08000828

080000ec <frame_dummy>:
 80000ec:	4b04      	ldr	r3, [pc, #16]	; (8000100 <frame_dummy+0x14>)
 80000ee:	b510      	push	{r4, lr}
 80000f0:	2b00      	cmp	r3, #0
 80000f2:	d003      	beq.n	80000fc <frame_dummy+0x10>
 80000f4:	4903      	ldr	r1, [pc, #12]	; (8000104 <frame_dummy+0x18>)
 80000f6:	4804      	ldr	r0, [pc, #16]	; (8000108 <frame_dummy+0x1c>)
 80000f8:	e000      	b.n	80000fc <frame_dummy+0x10>
 80000fa:	bf00      	nop
 80000fc:	bd10      	pop	{r4, pc}
 80000fe:	46c0      	nop			; (mov r8, r8)
 8000100:	00000000 	.word	0x00000000
 8000104:	20000004 	.word	0x20000004
 8000108:	08000828 	.word	0x08000828

0800010c <GPIO_Init>:
  * @note   The configured pins can be: GPIO_Pin_0 to GPIO_Pin_15 for GPIOA, GPIOB and GPIOC,
  *         GPIO_Pin_0 to GPIO_Pin_2 for GPIOD, GPIO_Pin_0 to GPIO_Pin_3 for GPIOF.
  * @retval None
  */
void GPIO_Init(GPIO_TypeDef* GPIOx, GPIO_InitTypeDef* GPIO_InitStruct)
{
 800010c:	b580      	push	{r7, lr}
 800010e:	b086      	sub	sp, #24
 8000110:	af00      	add	r7, sp, #0
 8000112:	6078      	str	r0, [r7, #4]
 8000114:	6039      	str	r1, [r7, #0]
  uint32_t pinpos = 0x00, pos = 0x00 , currentpin = 0x00;
 8000116:	2300      	movs	r3, #0
 8000118:	617b      	str	r3, [r7, #20]
 800011a:	2300      	movs	r3, #0
 800011c:	613b      	str	r3, [r7, #16]
 800011e:	2300      	movs	r3, #0
 8000120:	60fb      	str	r3, [r7, #12]
  assert_param(IS_GPIO_MODE(GPIO_InitStruct->GPIO_Mode));
  assert_param(IS_GPIO_PUPD(GPIO_InitStruct->GPIO_PuPd));

  /*-------------------------- Configure the port pins -----------------------*/
  /*-- GPIO Mode Configuration --*/
  for (pinpos = 0x00; pinpos < 0x10; pinpos++)
 8000122:	2300      	movs	r3, #0
 8000124:	617b      	str	r3, [r7, #20]
 8000126:	e07c      	b.n	8000222 <GPIO_Init+0x116>
  {
    pos = ((uint32_t)0x01) << pinpos;
 8000128:	2201      	movs	r2, #1
 800012a:	697b      	ldr	r3, [r7, #20]
 800012c:	409a      	lsls	r2, r3
 800012e:	0013      	movs	r3, r2
 8000130:	613b      	str	r3, [r7, #16]

    /* Get the port pins position */
    currentpin = (GPIO_InitStruct->GPIO_Pin) & pos;
 8000132:	683b      	ldr	r3, [r7, #0]
 8000134:	681b      	ldr	r3, [r3, #0]
 8000136:	693a      	ldr	r2, [r7, #16]
 8000138:	4013      	ands	r3, r2
 800013a:	60fb      	str	r3, [r7, #12]

    if (currentpin == pos)
 800013c:	68fa      	ldr	r2, [r7, #12]
 800013e:	693b      	ldr	r3, [r7, #16]
 8000140:	429a      	cmp	r2, r3
 8000142:	d16b      	bne.n	800021c <GPIO_Init+0x110>
    {
      if ((GPIO_InitStruct->GPIO_Mode == GPIO_Mode_OUT) || (GPIO_InitStruct->GPIO_Mode == GPIO_Mode_AF))
 8000144:	683b      	ldr	r3, [r7, #0]
 8000146:	791b      	ldrb	r3, [r3, #4]
 8000148:	2b01      	cmp	r3, #1
 800014a:	d003      	beq.n	8000154 <GPIO_Init+0x48>
 800014c:	683b      	ldr	r3, [r7, #0]
 800014e:	791b      	ldrb	r3, [r3, #4]
 8000150:	2b02      	cmp	r3, #2
 8000152:	d134      	bne.n	80001be <GPIO_Init+0xb2>
      {
        /* Check Speed mode parameters */
        assert_param(IS_GPIO_SPEED(GPIO_InitStruct->GPIO_Speed));

        /* Speed mode configuration */
        GPIOx->OSPEEDR &= ~(GPIO_OSPEEDER_OSPEEDR0 << (pinpos * 2));
 8000154:	687b      	ldr	r3, [r7, #4]
 8000156:	689b      	ldr	r3, [r3, #8]
 8000158:	697a      	ldr	r2, [r7, #20]
 800015a:	0052      	lsls	r2, r2, #1
 800015c:	2103      	movs	r1, #3
 800015e:	4091      	lsls	r1, r2
 8000160:	000a      	movs	r2, r1
 8000162:	43d2      	mvns	r2, r2
 8000164:	401a      	ands	r2, r3
 8000166:	687b      	ldr	r3, [r7, #4]
 8000168:	609a      	str	r2, [r3, #8]
        GPIOx->OSPEEDR |= ((uint32_t)(GPIO_InitStruct->GPIO_Speed) << (pinpos * 2));
 800016a:	687b      	ldr	r3, [r7, #4]
 800016c:	689a      	ldr	r2, [r3, #8]
 800016e:	683b      	ldr	r3, [r7, #0]
 8000170:	795b      	ldrb	r3, [r3, #5]
 8000172:	0019      	movs	r1, r3
 8000174:	697b      	ldr	r3, [r7, #20]
 8000176:	005b      	lsls	r3, r3, #1
 8000178:	4099      	lsls	r1, r3
 800017a:	000b      	movs	r3, r1
 800017c:	431a      	orrs	r2, r3
 800017e:	687b      	ldr	r3, [r7, #4]
 8000180:	609a      	str	r2, [r3, #8]

        /* Check Output mode parameters */
        assert_param(IS_GPIO_OTYPE(GPIO_InitStruct->GPIO_OType));

        /* Output mode configuration */
        GPIOx->OTYPER &= ~((GPIO_OTYPER_OT_0) << ((uint16_t)pinpos));
 8000182:	687b      	ldr	r3, [r7, #4]
 8000184:	889b      	ldrh	r3, [r3, #4]
 8000186:	b29b      	uxth	r3, r3
 8000188:	697a      	ldr	r2, [r7, #20]
 800018a:	b292      	uxth	r2, r2
 800018c:	0011      	movs	r1, r2
 800018e:	2201      	movs	r2, #1
 8000190:	408a      	lsls	r2, r1
 8000192:	b292      	uxth	r2, r2
 8000194:	43d2      	mvns	r2, r2
 8000196:	b292      	uxth	r2, r2
 8000198:	4013      	ands	r3, r2
 800019a:	b29a      	uxth	r2, r3
 800019c:	687b      	ldr	r3, [r7, #4]
 800019e:	809a      	strh	r2, [r3, #4]
        GPIOx->OTYPER |= (uint16_t)(((uint16_t)GPIO_InitStruct->GPIO_OType) << ((uint16_t)pinpos));
 80001a0:	687b      	ldr	r3, [r7, #4]
 80001a2:	889b      	ldrh	r3, [r3, #4]
 80001a4:	b29a      	uxth	r2, r3
 80001a6:	683b      	ldr	r3, [r7, #0]
 80001a8:	799b      	ldrb	r3, [r3, #6]
 80001aa:	0019      	movs	r1, r3
 80001ac:	697b      	ldr	r3, [r7, #20]
 80001ae:	b29b      	uxth	r3, r3
 80001b0:	4099      	lsls	r1, r3
 80001b2:	000b      	movs	r3, r1
 80001b4:	b29b      	uxth	r3, r3
 80001b6:	4313      	orrs	r3, r2
 80001b8:	b29a      	uxth	r2, r3
 80001ba:	687b      	ldr	r3, [r7, #4]
 80001bc:	809a      	strh	r2, [r3, #4]
      }

      GPIOx->MODER  &= ~(GPIO_MODER_MODER0 << (pinpos * 2));
 80001be:	687b      	ldr	r3, [r7, #4]
 80001c0:	681b      	ldr	r3, [r3, #0]
 80001c2:	697a      	ldr	r2, [r7, #20]
 80001c4:	0052      	lsls	r2, r2, #1
 80001c6:	2103      	movs	r1, #3
 80001c8:	4091      	lsls	r1, r2
 80001ca:	000a      	movs	r2, r1
 80001cc:	43d2      	mvns	r2, r2
 80001ce:	401a      	ands	r2, r3
 80001d0:	687b      	ldr	r3, [r7, #4]
 80001d2:	601a      	str	r2, [r3, #0]

      GPIOx->MODER |= (((uint32_t)GPIO_InitStruct->GPIO_Mode) << (pinpos * 2));
 80001d4:	687b      	ldr	r3, [r7, #4]
 80001d6:	681a      	ldr	r2, [r3, #0]
 80001d8:	683b      	ldr	r3, [r7, #0]
 80001da:	791b      	ldrb	r3, [r3, #4]
 80001dc:	0019      	movs	r1, r3
 80001de:	697b      	ldr	r3, [r7, #20]
 80001e0:	005b      	lsls	r3, r3, #1
 80001e2:	4099      	lsls	r1, r3
 80001e4:	000b      	movs	r3, r1
 80001e6:	431a      	orrs	r2, r3
 80001e8:	687b      	ldr	r3, [r7, #4]
 80001ea:	601a      	str	r2, [r3, #0]

      /* Pull-up Pull down resistor configuration */
      GPIOx->PUPDR &= ~(GPIO_PUPDR_PUPDR0 << ((uint16_t)pinpos * 2));
 80001ec:	687b      	ldr	r3, [r7, #4]
 80001ee:	68db      	ldr	r3, [r3, #12]
 80001f0:	697a      	ldr	r2, [r7, #20]
 80001f2:	b292      	uxth	r2, r2
 80001f4:	0052      	lsls	r2, r2, #1
 80001f6:	2103      	movs	r1, #3
 80001f8:	4091      	lsls	r1, r2
 80001fa:	000a      	movs	r2, r1
 80001fc:	43d2      	mvns	r2, r2
 80001fe:	401a      	ands	r2, r3
 8000200:	687b      	ldr	r3, [r7, #4]
 8000202:	60da      	str	r2, [r3, #12]
      GPIOx->PUPDR |= (((uint32_t)GPIO_InitStruct->GPIO_PuPd) << (pinpos * 2));
 8000204:	687b      	ldr	r3, [r7, #4]
 8000206:	68da      	ldr	r2, [r3, #12]
 8000208:	683b      	ldr	r3, [r7, #0]
 800020a:	79db      	ldrb	r3, [r3, #7]
 800020c:	0019      	movs	r1, r3
 800020e:	697b      	ldr	r3, [r7, #20]
 8000210:	005b      	lsls	r3, r3, #1
 8000212:	4099      	lsls	r1, r3
 8000214:	000b      	movs	r3, r1
 8000216:	431a      	orrs	r2, r3
 8000218:	687b      	ldr	r3, [r7, #4]
 800021a:	60da      	str	r2, [r3, #12]
  for (pinpos = 0x00; pinpos < 0x10; pinpos++)
 800021c:	697b      	ldr	r3, [r7, #20]
 800021e:	3301      	adds	r3, #1
 8000220:	617b      	str	r3, [r7, #20]
 8000222:	697b      	ldr	r3, [r7, #20]
 8000224:	2b0f      	cmp	r3, #15
 8000226:	d800      	bhi.n	800022a <GPIO_Init+0x11e>
 8000228:	e77e      	b.n	8000128 <GPIO_Init+0x1c>
    }
  }
}
 800022a:	46c0      	nop			; (mov r8, r8)
 800022c:	46bd      	mov	sp, r7
 800022e:	b006      	add	sp, #24
 8000230:	bd80      	pop	{r7, pc}

08000232 <GPIO_ReadInputDataBit>:
  * @note   This parameter can be GPIO_Pin_x where x can be:(0..15) for GPIOA, 
  *         GPIOB or GPIOC,(0..2) for GPIOD and(0..3) for GPIOF.
  * @retval The input port pin value.
  */
uint8_t GPIO_ReadInputDataBit(GPIO_TypeDef* GPIOx, uint16_t GPIO_Pin)
{
 8000232:	b580      	push	{r7, lr}
 8000234:	b084      	sub	sp, #16
 8000236:	af00      	add	r7, sp, #0
 8000238:	6078      	str	r0, [r7, #4]
 800023a:	000a      	movs	r2, r1
 800023c:	1cbb      	adds	r3, r7, #2
 800023e:	801a      	strh	r2, [r3, #0]
  uint8_t bitstatus = 0x00;
 8000240:	230f      	movs	r3, #15
 8000242:	18fb      	adds	r3, r7, r3
 8000244:	2200      	movs	r2, #0
 8000246:	701a      	strb	r2, [r3, #0]

  /* Check the parameters */
  assert_param(IS_GPIO_ALL_PERIPH(GPIOx));
  assert_param(IS_GET_GPIO_PIN(GPIO_Pin));

  if ((GPIOx->IDR & GPIO_Pin) != (uint32_t)Bit_RESET)
 8000248:	687b      	ldr	r3, [r7, #4]
 800024a:	8a1b      	ldrh	r3, [r3, #16]
 800024c:	b29b      	uxth	r3, r3
 800024e:	1cba      	adds	r2, r7, #2
 8000250:	8812      	ldrh	r2, [r2, #0]
 8000252:	4013      	ands	r3, r2
 8000254:	b29b      	uxth	r3, r3
 8000256:	2b00      	cmp	r3, #0
 8000258:	d004      	beq.n	8000264 <GPIO_ReadInputDataBit+0x32>
  {
    bitstatus = (uint8_t)Bit_SET;
 800025a:	230f      	movs	r3, #15
 800025c:	18fb      	adds	r3, r7, r3
 800025e:	2201      	movs	r2, #1
 8000260:	701a      	strb	r2, [r3, #0]
 8000262:	e003      	b.n	800026c <GPIO_ReadInputDataBit+0x3a>
  }
  else
  {
    bitstatus = (uint8_t)Bit_RESET;
 8000264:	230f      	movs	r3, #15
 8000266:	18fb      	adds	r3, r7, r3
 8000268:	2200      	movs	r2, #0
 800026a:	701a      	strb	r2, [r3, #0]
  }
  return bitstatus;
 800026c:	230f      	movs	r3, #15
 800026e:	18fb      	adds	r3, r7, r3
 8000270:	781b      	ldrb	r3, [r3, #0]
}
 8000272:	0018      	movs	r0, r3
 8000274:	46bd      	mov	sp, r7
 8000276:	b004      	add	sp, #16
 8000278:	bd80      	pop	{r7, pc}

0800027a <GPIO_WriteBit>:
  * @note   The GPIO_Pin parameter can be GPIO_Pin_x where x can be: (0..15) for GPIOA, 
  *         GPIOB or GPIOC,(0..2) for GPIOD and(0..3) for GPIOF.  
  * @retval None
  */
void GPIO_WriteBit(GPIO_TypeDef* GPIOx, uint16_t GPIO_Pin, BitAction BitVal)
{
 800027a:	b580      	push	{r7, lr}
 800027c:	b082      	sub	sp, #8
 800027e:	af00      	add	r7, sp, #0
 8000280:	6078      	str	r0, [r7, #4]
 8000282:	0008      	movs	r0, r1
 8000284:	0011      	movs	r1, r2
 8000286:	1cbb      	adds	r3, r7, #2
 8000288:	1c02      	adds	r2, r0, #0
 800028a:	801a      	strh	r2, [r3, #0]
 800028c:	1c7b      	adds	r3, r7, #1
 800028e:	1c0a      	adds	r2, r1, #0
 8000290:	701a      	strb	r2, [r3, #0]
  /* Check the parameters */
  assert_param(IS_GPIO_ALL_PERIPH(GPIOx));
  assert_param(IS_GET_GPIO_PIN(GPIO_Pin));
  assert_param(IS_GPIO_BIT_ACTION(BitVal));

  if (BitVal != Bit_RESET)
 8000292:	1c7b      	adds	r3, r7, #1
 8000294:	781b      	ldrb	r3, [r3, #0]
 8000296:	2b00      	cmp	r3, #0
 8000298:	d004      	beq.n	80002a4 <GPIO_WriteBit+0x2a>
  {
    GPIOx->BSRR = GPIO_Pin;
 800029a:	1cbb      	adds	r3, r7, #2
 800029c:	881a      	ldrh	r2, [r3, #0]
 800029e:	687b      	ldr	r3, [r7, #4]
 80002a0:	619a      	str	r2, [r3, #24]
  }
  else
  {
    GPIOx->BRR = GPIO_Pin ;
  }
}
 80002a2:	e003      	b.n	80002ac <GPIO_WriteBit+0x32>
    GPIOx->BRR = GPIO_Pin ;
 80002a4:	687b      	ldr	r3, [r7, #4]
 80002a6:	1cba      	adds	r2, r7, #2
 80002a8:	8812      	ldrh	r2, [r2, #0]
 80002aa:	851a      	strh	r2, [r3, #40]	; 0x28
}
 80002ac:	46c0      	nop			; (mov r8, r8)
 80002ae:	46bd      	mov	sp, r7
 80002b0:	b002      	add	sp, #8
 80002b2:	bd80      	pop	{r7, pc}

080002b4 <RCC_AHBPeriphClockCmd>:
  * @param  NewState: new state of the specified peripheral clock.
  *          This parameter can be: ENABLE or DISABLE.
  * @retval None
  */
void RCC_AHBPeriphClockCmd(uint32_t RCC_AHBPeriph, FunctionalState NewState)
{
 80002b4:	b580      	push	{r7, lr}
 80002b6:	b082      	sub	sp, #8
 80002b8:	af00      	add	r7, sp, #0
 80002ba:	6078      	str	r0, [r7, #4]
 80002bc:	000a      	movs	r2, r1
 80002be:	1cfb      	adds	r3, r7, #3
 80002c0:	701a      	strb	r2, [r3, #0]
  /* Check the parameters */
  assert_param(IS_RCC_AHB_PERIPH(RCC_AHBPeriph));
  assert_param(IS_FUNCTIONAL_STATE(NewState));
  
  if (NewState != DISABLE)
 80002c2:	1cfb      	adds	r3, r7, #3
 80002c4:	781b      	ldrb	r3, [r3, #0]
 80002c6:	2b00      	cmp	r3, #0
 80002c8:	d006      	beq.n	80002d8 <RCC_AHBPeriphClockCmd+0x24>
  {
    RCC->AHBENR |= RCC_AHBPeriph;
 80002ca:	4b09      	ldr	r3, [pc, #36]	; (80002f0 <RCC_AHBPeriphClockCmd+0x3c>)
 80002cc:	4a08      	ldr	r2, [pc, #32]	; (80002f0 <RCC_AHBPeriphClockCmd+0x3c>)
 80002ce:	6951      	ldr	r1, [r2, #20]
 80002d0:	687a      	ldr	r2, [r7, #4]
 80002d2:	430a      	orrs	r2, r1
 80002d4:	615a      	str	r2, [r3, #20]
  }
  else
  {
    RCC->AHBENR &= ~RCC_AHBPeriph;
  }
}
 80002d6:	e006      	b.n	80002e6 <RCC_AHBPeriphClockCmd+0x32>
    RCC->AHBENR &= ~RCC_AHBPeriph;
 80002d8:	4b05      	ldr	r3, [pc, #20]	; (80002f0 <RCC_AHBPeriphClockCmd+0x3c>)
 80002da:	4a05      	ldr	r2, [pc, #20]	; (80002f0 <RCC_AHBPeriphClockCmd+0x3c>)
 80002dc:	6952      	ldr	r2, [r2, #20]
 80002de:	6879      	ldr	r1, [r7, #4]
 80002e0:	43c9      	mvns	r1, r1
 80002e2:	400a      	ands	r2, r1
 80002e4:	615a      	str	r2, [r3, #20]
}
 80002e6:	46c0      	nop			; (mov r8, r8)
 80002e8:	46bd      	mov	sp, r7
 80002ea:	b002      	add	sp, #8
 80002ec:	bd80      	pop	{r7, pc}
 80002ee:	46c0      	nop			; (mov r8, r8)
 80002f0:	40021000 	.word	0x40021000

080002f4 <main>:
/**
 * @brief  Main program.
 * @param  None
 * @retval None
 */
int main(void) {
 80002f4:	b580      	push	{r7, lr}
 80002f6:	b084      	sub	sp, #16
 80002f8:	af00      	add	r7, sp, #0
	 To reconfigure the default setting of SystemInit() function, refer to
	 system_stm32f0xx.c file
	 */

	/* GPIOC Periph clock enable */
	RCC_AHBPeriphClockCmd(RCC_AHBPeriph_GPIOC, ENABLE);
 80002fa:	2380      	movs	r3, #128	; 0x80
 80002fc:	031b      	lsls	r3, r3, #12
 80002fe:	2101      	movs	r1, #1
 8000300:	0018      	movs	r0, r3
 8000302:	f7ff ffd7 	bl	80002b4 <RCC_AHBPeriphClockCmd>

	RCC_AHBPeriphClockCmd(RCC_AHBPeriph_GPIOA, ENABLE); // Enable for button
 8000306:	2380      	movs	r3, #128	; 0x80
 8000308:	029b      	lsls	r3, r3, #10
 800030a:	2101      	movs	r1, #1
 800030c:	0018      	movs	r0, r3
 800030e:	f7ff ffd1 	bl	80002b4 <RCC_AHBPeriphClockCmd>

	/* Configure PC8 and PC9 in output pushpull mode */
	GPIO_InitStructure.GPIO_Pin = GPIO_Pin_6 | GPIO_Pin_7 | GPIO_Pin_8
 8000312:	4bbe      	ldr	r3, [pc, #760]	; (800060c <main+0x318>)
 8000314:	22f0      	movs	r2, #240	; 0xf0
 8000316:	0092      	lsls	r2, r2, #2
 8000318:	601a      	str	r2, [r3, #0]
			| GPIO_Pin_9;
	GPIO_InitStructure.GPIO_Mode = GPIO_Mode_OUT;
 800031a:	4bbc      	ldr	r3, [pc, #752]	; (800060c <main+0x318>)
 800031c:	2201      	movs	r2, #1
 800031e:	711a      	strb	r2, [r3, #4]
	GPIO_InitStructure.GPIO_OType = GPIO_OType_PP;
 8000320:	4bba      	ldr	r3, [pc, #744]	; (800060c <main+0x318>)
 8000322:	2200      	movs	r2, #0
 8000324:	719a      	strb	r2, [r3, #6]
	GPIO_InitStructure.GPIO_Speed = GPIO_Speed_50MHz;
 8000326:	4bb9      	ldr	r3, [pc, #740]	; (800060c <main+0x318>)
 8000328:	2203      	movs	r2, #3
 800032a:	715a      	strb	r2, [r3, #5]
	GPIO_InitStructure.GPIO_PuPd = GPIO_PuPd_NOPULL;
 800032c:	4bb7      	ldr	r3, [pc, #732]	; (800060c <main+0x318>)
 800032e:	2200      	movs	r2, #0
 8000330:	71da      	strb	r2, [r3, #7]
	GPIO_Init(GPIOC, &GPIO_InitStructure);
 8000332:	4bb6      	ldr	r3, [pc, #728]	; (800060c <main+0x318>)
 8000334:	4ab6      	ldr	r2, [pc, #728]	; (8000610 <main+0x31c>)
 8000336:	0019      	movs	r1, r3
 8000338:	0010      	movs	r0, r2
 800033a:	f7ff fee7 	bl	800010c <GPIO_Init>

	/* Configure PC8 and PC9 in output pushpull mode */
	GPIO_InitStructure.GPIO_Pin = GPIO_Pin_0;
 800033e:	4bb3      	ldr	r3, [pc, #716]	; (800060c <main+0x318>)
 8000340:	2201      	movs	r2, #1
 8000342:	601a      	str	r2, [r3, #0]
	GPIO_InitStructure.GPIO_Mode = GPIO_Mode_IN;
 8000344:	4bb1      	ldr	r3, [pc, #708]	; (800060c <main+0x318>)
 8000346:	2200      	movs	r2, #0
 8000348:	711a      	strb	r2, [r3, #4]
	GPIO_InitStructure.GPIO_OType = GPIO_OType_PP;
 800034a:	4bb0      	ldr	r3, [pc, #704]	; (800060c <main+0x318>)
 800034c:	2200      	movs	r2, #0
 800034e:	719a      	strb	r2, [r3, #6]
	GPIO_InitStructure.GPIO_Speed = GPIO_Speed_50MHz;
 8000350:	4bae      	ldr	r3, [pc, #696]	; (800060c <main+0x318>)
 8000352:	2203      	movs	r2, #3
 8000354:	715a      	strb	r2, [r3, #5]
	GPIO_InitStructure.GPIO_PuPd = GPIO_PuPd_DOWN;
 8000356:	4bad      	ldr	r3, [pc, #692]	; (800060c <main+0x318>)
 8000358:	2202      	movs	r2, #2
 800035a:	71da      	strb	r2, [r3, #7]
	GPIO_Init(GPIOA, &GPIO_InitStructure);
 800035c:	4aab      	ldr	r2, [pc, #684]	; (800060c <main+0x318>)
 800035e:	2390      	movs	r3, #144	; 0x90
 8000360:	05db      	lsls	r3, r3, #23
 8000362:	0011      	movs	r1, r2
 8000364:	0018      	movs	r0, r3
 8000366:	f7ff fed1 	bl	800010c <GPIO_Init>
	 You can monitor PC8 and PC9 on the scope to measure the output signal.
	 If you need to fine tune this frequency, you can add more GPIO set/reset
	 cycles to minimize more the infinite loop timing.
	 This code needs to be compiled with high speed optimization option.  */

	uint8_t switch_key = 5, key_pressed = 0, pause = 0;
 800036a:	230f      	movs	r3, #15
 800036c:	18fb      	adds	r3, r7, r3
 800036e:	2205      	movs	r2, #5
 8000370:	701a      	strb	r2, [r3, #0]
 8000372:	230e      	movs	r3, #14
 8000374:	18fb      	adds	r3, r7, r3
 8000376:	2200      	movs	r2, #0
 8000378:	701a      	strb	r2, [r3, #0]
 800037a:	230d      	movs	r3, #13
 800037c:	18fb      	adds	r3, r7, r3
 800037e:	2200      	movs	r2, #0
 8000380:	701a      	strb	r2, [r3, #0]
	uint32_t debounce_down = DEBOUNCE;
 8000382:	4ba4      	ldr	r3, [pc, #656]	; (8000614 <main+0x320>)
 8000384:	60bb      	str	r3, [r7, #8]
	uint32_t debounce_up = DEBOUNCE;
 8000386:	4ba3      	ldr	r3, [pc, #652]	; (8000614 <main+0x320>)
 8000388:	607b      	str	r3, [r7, #4]
	uint32_t time = TIME;
 800038a:	4ba3      	ldr	r3, [pc, #652]	; (8000618 <main+0x324>)
 800038c:	603b      	str	r3, [r7, #0]

	while (1) {

		if (!pause) {
 800038e:	230d      	movs	r3, #13
 8000390:	18fb      	adds	r3, r7, r3
 8000392:	781b      	ldrb	r3, [r3, #0]
 8000394:	2b00      	cmp	r3, #0
 8000396:	d102      	bne.n	800039e <main+0xaa>
		time--;
 8000398:	683b      	ldr	r3, [r7, #0]
 800039a:	3b01      	subs	r3, #1
 800039c:	603b      	str	r3, [r7, #0]
		}

		if (GPIO_ReadInputDataBit(GPIOA, GPIO_Pin_0)) {
 800039e:	2390      	movs	r3, #144	; 0x90
 80003a0:	05db      	lsls	r3, r3, #23
 80003a2:	2101      	movs	r1, #1
 80003a4:	0018      	movs	r0, r3
 80003a6:	f7ff ff44 	bl	8000232 <GPIO_ReadInputDataBit>
 80003aa:	1e03      	subs	r3, r0, #0
 80003ac:	d00e      	beq.n	80003cc <main+0xd8>

			debounce_down--;
 80003ae:	68bb      	ldr	r3, [r7, #8]
 80003b0:	3b01      	subs	r3, #1
 80003b2:	60bb      	str	r3, [r7, #8]

			if (!debounce_down && !key_pressed) {
 80003b4:	68bb      	ldr	r3, [r7, #8]
 80003b6:	2b00      	cmp	r3, #0
 80003b8:	d108      	bne.n	80003cc <main+0xd8>
 80003ba:	230e      	movs	r3, #14
 80003bc:	18fb      	adds	r3, r7, r3
 80003be:	781b      	ldrb	r3, [r3, #0]
 80003c0:	2b00      	cmp	r3, #0
 80003c2:	d103      	bne.n	80003cc <main+0xd8>
				key_pressed = 1;
 80003c4:	230e      	movs	r3, #14
 80003c6:	18fb      	adds	r3, r7, r3
 80003c8:	2201      	movs	r2, #1
 80003ca:	701a      	strb	r2, [r3, #0]
			}
		}

		if (key_pressed && !GPIO_ReadInputDataBit(GPIOA, GPIO_Pin_0)) {
 80003cc:	230e      	movs	r3, #14
 80003ce:	18fb      	adds	r3, r7, r3
 80003d0:	781b      	ldrb	r3, [r3, #0]
 80003d2:	2b00      	cmp	r3, #0
 80003d4:	d01e      	beq.n	8000414 <main+0x120>
 80003d6:	2390      	movs	r3, #144	; 0x90
 80003d8:	05db      	lsls	r3, r3, #23
 80003da:	2101      	movs	r1, #1
 80003dc:	0018      	movs	r0, r3
 80003de:	f7ff ff28 	bl	8000232 <GPIO_ReadInputDataBit>
 80003e2:	1e03      	subs	r3, r0, #0
 80003e4:	d116      	bne.n	8000414 <main+0x120>
			debounce_up--;
 80003e6:	687b      	ldr	r3, [r7, #4]
 80003e8:	3b01      	subs	r3, #1
 80003ea:	607b      	str	r3, [r7, #4]
			if (!debounce_up) {
 80003ec:	687b      	ldr	r3, [r7, #4]
 80003ee:	2b00      	cmp	r3, #0
 80003f0:	d110      	bne.n	8000414 <main+0x120>

				key_pressed = 0;
 80003f2:	230e      	movs	r3, #14
 80003f4:	18fb      	adds	r3, r7, r3
 80003f6:	2200      	movs	r2, #0
 80003f8:	701a      	strb	r2, [r3, #0]
				debounce_down = DEBOUNCE;
 80003fa:	4b86      	ldr	r3, [pc, #536]	; (8000614 <main+0x320>)
 80003fc:	60bb      	str	r3, [r7, #8]
				debounce_up = DEBOUNCE;
 80003fe:	4b85      	ldr	r3, [pc, #532]	; (8000614 <main+0x320>)
 8000400:	607b      	str	r3, [r7, #4]

				pause = !pause;
 8000402:	230d      	movs	r3, #13
 8000404:	18fb      	adds	r3, r7, r3
 8000406:	781b      	ldrb	r3, [r3, #0]
 8000408:	425a      	negs	r2, r3
 800040a:	4153      	adcs	r3, r2
 800040c:	b2da      	uxtb	r2, r3
 800040e:	230d      	movs	r3, #13
 8000410:	18fb      	adds	r3, r7, r3
 8000412:	701a      	strb	r2, [r3, #0]
//				} else
//					switch_key = 0;
			}
		}

		if (!time) {
 8000414:	683b      	ldr	r3, [r7, #0]
 8000416:	2b00      	cmp	r3, #0
 8000418:	d112      	bne.n	8000440 <main+0x14c>
			time = TIME;
 800041a:	4b7f      	ldr	r3, [pc, #508]	; (8000618 <main+0x324>)
 800041c:	603b      	str	r3, [r7, #0]
			if (switch_key <= STATES) {
 800041e:	230f      	movs	r3, #15
 8000420:	18fb      	adds	r3, r7, r3
 8000422:	781b      	ldrb	r3, [r3, #0]
 8000424:	2b06      	cmp	r3, #6
 8000426:	d807      	bhi.n	8000438 <main+0x144>
				switch_key++;
 8000428:	230f      	movs	r3, #15
 800042a:	18fb      	adds	r3, r7, r3
 800042c:	781a      	ldrb	r2, [r3, #0]
 800042e:	230f      	movs	r3, #15
 8000430:	18fb      	adds	r3, r7, r3
 8000432:	3201      	adds	r2, #1
 8000434:	701a      	strb	r2, [r3, #0]
 8000436:	e003      	b.n	8000440 <main+0x14c>
			} else
				switch_key = 0;
 8000438:	230f      	movs	r3, #15
 800043a:	18fb      	adds	r3, r7, r3
 800043c:	2200      	movs	r2, #0
 800043e:	701a      	strb	r2, [r3, #0]
		}

		switch (switch_key) {
 8000440:	230f      	movs	r3, #15
 8000442:	18fb      	adds	r3, r7, r3
 8000444:	781b      	ldrb	r3, [r3, #0]
 8000446:	2b07      	cmp	r3, #7
 8000448:	d900      	bls.n	800044c <main+0x158>
 800044a:	e0dc      	b.n	8000606 <main+0x312>
 800044c:	009a      	lsls	r2, r3, #2
 800044e:	4b73      	ldr	r3, [pc, #460]	; (800061c <main+0x328>)
 8000450:	18d3      	adds	r3, r2, r3
 8000452:	681b      	ldr	r3, [r3, #0]
 8000454:	469f      	mov	pc, r3
		case 0:
			GPIO_WriteBit(GPIOC, GPIO_Pin_6, Bit_SET);
 8000456:	4b6e      	ldr	r3, [pc, #440]	; (8000610 <main+0x31c>)
 8000458:	2201      	movs	r2, #1
 800045a:	2140      	movs	r1, #64	; 0x40
 800045c:	0018      	movs	r0, r3
 800045e:	f7ff ff0c 	bl	800027a <GPIO_WriteBit>
			GPIO_WriteBit(GPIOC, GPIO_Pin_7, Bit_RESET);
 8000462:	4b6b      	ldr	r3, [pc, #428]	; (8000610 <main+0x31c>)
 8000464:	2200      	movs	r2, #0
 8000466:	2180      	movs	r1, #128	; 0x80
 8000468:	0018      	movs	r0, r3
 800046a:	f7ff ff06 	bl	800027a <GPIO_WriteBit>
			GPIO_WriteBit(GPIOC, GPIO_Pin_8, Bit_RESET);
 800046e:	2380      	movs	r3, #128	; 0x80
 8000470:	005b      	lsls	r3, r3, #1
 8000472:	4867      	ldr	r0, [pc, #412]	; (8000610 <main+0x31c>)
 8000474:	2200      	movs	r2, #0
 8000476:	0019      	movs	r1, r3
 8000478:	f7ff feff 	bl	800027a <GPIO_WriteBit>
			GPIO_WriteBit(GPIOC, GPIO_Pin_9, Bit_RESET);
 800047c:	2380      	movs	r3, #128	; 0x80
 800047e:	009b      	lsls	r3, r3, #2
 8000480:	4863      	ldr	r0, [pc, #396]	; (8000610 <main+0x31c>)
 8000482:	2200      	movs	r2, #0
 8000484:	0019      	movs	r1, r3
 8000486:	f7ff fef8 	bl	800027a <GPIO_WriteBit>
			break;
 800048a:	e0bd      	b.n	8000608 <main+0x314>

		case 1:
			GPIO_WriteBit(GPIOC, GPIO_Pin_6, Bit_RESET);
 800048c:	4b60      	ldr	r3, [pc, #384]	; (8000610 <main+0x31c>)
 800048e:	2200      	movs	r2, #0
 8000490:	2140      	movs	r1, #64	; 0x40
 8000492:	0018      	movs	r0, r3
 8000494:	f7ff fef1 	bl	800027a <GPIO_WriteBit>
			GPIO_WriteBit(GPIOC, GPIO_Pin_7, Bit_SET);
 8000498:	4b5d      	ldr	r3, [pc, #372]	; (8000610 <main+0x31c>)
 800049a:	2201      	movs	r2, #1
 800049c:	2180      	movs	r1, #128	; 0x80
 800049e:	0018      	movs	r0, r3
 80004a0:	f7ff feeb 	bl	800027a <GPIO_WriteBit>
			GPIO_WriteBit(GPIOC, GPIO_Pin_8, Bit_RESET);
 80004a4:	2380      	movs	r3, #128	; 0x80
 80004a6:	005b      	lsls	r3, r3, #1
 80004a8:	4859      	ldr	r0, [pc, #356]	; (8000610 <main+0x31c>)
 80004aa:	2200      	movs	r2, #0
 80004ac:	0019      	movs	r1, r3
 80004ae:	f7ff fee4 	bl	800027a <GPIO_WriteBit>
			GPIO_WriteBit(GPIOC, GPIO_Pin_9, Bit_RESET);
 80004b2:	2380      	movs	r3, #128	; 0x80
 80004b4:	009b      	lsls	r3, r3, #2
 80004b6:	4856      	ldr	r0, [pc, #344]	; (8000610 <main+0x31c>)
 80004b8:	2200      	movs	r2, #0
 80004ba:	0019      	movs	r1, r3
 80004bc:	f7ff fedd 	bl	800027a <GPIO_WriteBit>
			break;
 80004c0:	e0a2      	b.n	8000608 <main+0x314>

		case 2:
			GPIO_WriteBit(GPIOC, GPIO_Pin_6, Bit_RESET);
 80004c2:	4b53      	ldr	r3, [pc, #332]	; (8000610 <main+0x31c>)
 80004c4:	2200      	movs	r2, #0
 80004c6:	2140      	movs	r1, #64	; 0x40
 80004c8:	0018      	movs	r0, r3
 80004ca:	f7ff fed6 	bl	800027a <GPIO_WriteBit>
			GPIO_WriteBit(GPIOC, GPIO_Pin_7, Bit_RESET);
 80004ce:	4b50      	ldr	r3, [pc, #320]	; (8000610 <main+0x31c>)
 80004d0:	2200      	movs	r2, #0
 80004d2:	2180      	movs	r1, #128	; 0x80
 80004d4:	0018      	movs	r0, r3
 80004d6:	f7ff fed0 	bl	800027a <GPIO_WriteBit>
			GPIO_WriteBit(GPIOC, GPIO_Pin_8, Bit_RESET);
 80004da:	2380      	movs	r3, #128	; 0x80
 80004dc:	005b      	lsls	r3, r3, #1
 80004de:	484c      	ldr	r0, [pc, #304]	; (8000610 <main+0x31c>)
 80004e0:	2200      	movs	r2, #0
 80004e2:	0019      	movs	r1, r3
 80004e4:	f7ff fec9 	bl	800027a <GPIO_WriteBit>
			GPIO_WriteBit(GPIOC, GPIO_Pin_9, Bit_SET);
 80004e8:	2380      	movs	r3, #128	; 0x80
 80004ea:	009b      	lsls	r3, r3, #2
 80004ec:	4848      	ldr	r0, [pc, #288]	; (8000610 <main+0x31c>)
 80004ee:	2201      	movs	r2, #1
 80004f0:	0019      	movs	r1, r3
 80004f2:	f7ff fec2 	bl	800027a <GPIO_WriteBit>
			break;
 80004f6:	e087      	b.n	8000608 <main+0x314>

		case 3:
			GPIO_WriteBit(GPIOC, GPIO_Pin_6, Bit_SET);
 80004f8:	4b45      	ldr	r3, [pc, #276]	; (8000610 <main+0x31c>)
 80004fa:	2201      	movs	r2, #1
 80004fc:	2140      	movs	r1, #64	; 0x40
 80004fe:	0018      	movs	r0, r3
 8000500:	f7ff febb 	bl	800027a <GPIO_WriteBit>
			GPIO_WriteBit(GPIOC, GPIO_Pin_7, Bit_SET);
 8000504:	4b42      	ldr	r3, [pc, #264]	; (8000610 <main+0x31c>)
 8000506:	2201      	movs	r2, #1
 8000508:	2180      	movs	r1, #128	; 0x80
 800050a:	0018      	movs	r0, r3
 800050c:	f7ff feb5 	bl	800027a <GPIO_WriteBit>
			GPIO_WriteBit(GPIOC, GPIO_Pin_8, Bit_RESET);
 8000510:	2380      	movs	r3, #128	; 0x80
 8000512:	005b      	lsls	r3, r3, #1
 8000514:	483e      	ldr	r0, [pc, #248]	; (8000610 <main+0x31c>)
 8000516:	2200      	movs	r2, #0
 8000518:	0019      	movs	r1, r3
 800051a:	f7ff feae 	bl	800027a <GPIO_WriteBit>
			GPIO_WriteBit(GPIOC, GPIO_Pin_9, Bit_RESET);
 800051e:	2380      	movs	r3, #128	; 0x80
 8000520:	009b      	lsls	r3, r3, #2
 8000522:	483b      	ldr	r0, [pc, #236]	; (8000610 <main+0x31c>)
 8000524:	2200      	movs	r2, #0
 8000526:	0019      	movs	r1, r3
 8000528:	f7ff fea7 	bl	800027a <GPIO_WriteBit>
			break;
 800052c:	e06c      	b.n	8000608 <main+0x314>

		case 4:
			GPIO_WriteBit(GPIOC, GPIO_Pin_6, Bit_SET);
 800052e:	4b38      	ldr	r3, [pc, #224]	; (8000610 <main+0x31c>)
 8000530:	2201      	movs	r2, #1
 8000532:	2140      	movs	r1, #64	; 0x40
 8000534:	0018      	movs	r0, r3
 8000536:	f7ff fea0 	bl	800027a <GPIO_WriteBit>
			GPIO_WriteBit(GPIOC, GPIO_Pin_7, Bit_RESET);
 800053a:	4b35      	ldr	r3, [pc, #212]	; (8000610 <main+0x31c>)
 800053c:	2200      	movs	r2, #0
 800053e:	2180      	movs	r1, #128	; 0x80
 8000540:	0018      	movs	r0, r3
 8000542:	f7ff fe9a 	bl	800027a <GPIO_WriteBit>
			GPIO_WriteBit(GPIOC, GPIO_Pin_8, Bit_RESET);
 8000546:	2380      	movs	r3, #128	; 0x80
 8000548:	005b      	lsls	r3, r3, #1
 800054a:	4831      	ldr	r0, [pc, #196]	; (8000610 <main+0x31c>)
 800054c:	2200      	movs	r2, #0
 800054e:	0019      	movs	r1, r3
 8000550:	f7ff fe93 	bl	800027a <GPIO_WriteBit>
			GPIO_WriteBit(GPIOC, GPIO_Pin_9, Bit_SET);
 8000554:	2380      	movs	r3, #128	; 0x80
 8000556:	009b      	lsls	r3, r3, #2
 8000558:	482d      	ldr	r0, [pc, #180]	; (8000610 <main+0x31c>)
 800055a:	2201      	movs	r2, #1
 800055c:	0019      	movs	r1, r3
 800055e:	f7ff fe8c 	bl	800027a <GPIO_WriteBit>
			break;
 8000562:	e051      	b.n	8000608 <main+0x314>

		case 5:
			GPIO_WriteBit(GPIOC, GPIO_Pin_6, Bit_SET);
 8000564:	4b2a      	ldr	r3, [pc, #168]	; (8000610 <main+0x31c>)
 8000566:	2201      	movs	r2, #1
 8000568:	2140      	movs	r1, #64	; 0x40
 800056a:	0018      	movs	r0, r3
 800056c:	f7ff fe85 	bl	800027a <GPIO_WriteBit>
			GPIO_WriteBit(GPIOC, GPIO_Pin_7, Bit_SET);
 8000570:	4b27      	ldr	r3, [pc, #156]	; (8000610 <main+0x31c>)
 8000572:	2201      	movs	r2, #1
 8000574:	2180      	movs	r1, #128	; 0x80
 8000576:	0018      	movs	r0, r3
 8000578:	f7ff fe7f 	bl	800027a <GPIO_WriteBit>
			GPIO_WriteBit(GPIOC, GPIO_Pin_8, Bit_SET);
 800057c:	2380      	movs	r3, #128	; 0x80
 800057e:	005b      	lsls	r3, r3, #1
 8000580:	4823      	ldr	r0, [pc, #140]	; (8000610 <main+0x31c>)
 8000582:	2201      	movs	r2, #1
 8000584:	0019      	movs	r1, r3
 8000586:	f7ff fe78 	bl	800027a <GPIO_WriteBit>
			GPIO_WriteBit(GPIOC, GPIO_Pin_9, Bit_SET);
 800058a:	2380      	movs	r3, #128	; 0x80
 800058c:	009b      	lsls	r3, r3, #2
 800058e:	4820      	ldr	r0, [pc, #128]	; (8000610 <main+0x31c>)
 8000590:	2201      	movs	r2, #1
 8000592:	0019      	movs	r1, r3
 8000594:	f7ff fe71 	bl	800027a <GPIO_WriteBit>
			break;
 8000598:	e036      	b.n	8000608 <main+0x314>

		case 6:
			GPIO_WriteBit(GPIOC, GPIO_Pin_6, Bit_RESET);
 800059a:	4b1d      	ldr	r3, [pc, #116]	; (8000610 <main+0x31c>)
 800059c:	2200      	movs	r2, #0
 800059e:	2140      	movs	r1, #64	; 0x40
 80005a0:	0018      	movs	r0, r3
 80005a2:	f7ff fe6a 	bl	800027a <GPIO_WriteBit>
			GPIO_WriteBit(GPIOC, GPIO_Pin_7, Bit_SET);
 80005a6:	4b1a      	ldr	r3, [pc, #104]	; (8000610 <main+0x31c>)
 80005a8:	2201      	movs	r2, #1
 80005aa:	2180      	movs	r1, #128	; 0x80
 80005ac:	0018      	movs	r0, r3
 80005ae:	f7ff fe64 	bl	800027a <GPIO_WriteBit>
			GPIO_WriteBit(GPIOC, GPIO_Pin_8, Bit_RESET);
 80005b2:	2380      	movs	r3, #128	; 0x80
 80005b4:	005b      	lsls	r3, r3, #1
 80005b6:	4816      	ldr	r0, [pc, #88]	; (8000610 <main+0x31c>)
 80005b8:	2200      	movs	r2, #0
 80005ba:	0019      	movs	r1, r3
 80005bc:	f7ff fe5d 	bl	800027a <GPIO_WriteBit>
			GPIO_WriteBit(GPIOC, GPIO_Pin_9, Bit_SET);
 80005c0:	2380      	movs	r3, #128	; 0x80
 80005c2:	009b      	lsls	r3, r3, #2
 80005c4:	4812      	ldr	r0, [pc, #72]	; (8000610 <main+0x31c>)
 80005c6:	2201      	movs	r2, #1
 80005c8:	0019      	movs	r1, r3
 80005ca:	f7ff fe56 	bl	800027a <GPIO_WriteBit>
			break;
 80005ce:	e01b      	b.n	8000608 <main+0x314>

		case 7:
			GPIO_WriteBit(GPIOC, GPIO_Pin_6, Bit_RESET);
 80005d0:	4b0f      	ldr	r3, [pc, #60]	; (8000610 <main+0x31c>)
 80005d2:	2200      	movs	r2, #0
 80005d4:	2140      	movs	r1, #64	; 0x40
 80005d6:	0018      	movs	r0, r3
 80005d8:	f7ff fe4f 	bl	800027a <GPIO_WriteBit>
			GPIO_WriteBit(GPIOC, GPIO_Pin_7, Bit_RESET);
 80005dc:	4b0c      	ldr	r3, [pc, #48]	; (8000610 <main+0x31c>)
 80005de:	2200      	movs	r2, #0
 80005e0:	2180      	movs	r1, #128	; 0x80
 80005e2:	0018      	movs	r0, r3
 80005e4:	f7ff fe49 	bl	800027a <GPIO_WriteBit>
			GPIO_WriteBit(GPIOC, GPIO_Pin_8, Bit_RESET);
 80005e8:	2380      	movs	r3, #128	; 0x80
 80005ea:	005b      	lsls	r3, r3, #1
 80005ec:	4808      	ldr	r0, [pc, #32]	; (8000610 <main+0x31c>)
 80005ee:	2200      	movs	r2, #0
 80005f0:	0019      	movs	r1, r3
 80005f2:	f7ff fe42 	bl	800027a <GPIO_WriteBit>
			GPIO_WriteBit(GPIOC, GPIO_Pin_9, Bit_RESET);
 80005f6:	2380      	movs	r3, #128	; 0x80
 80005f8:	009b      	lsls	r3, r3, #2
 80005fa:	4805      	ldr	r0, [pc, #20]	; (8000610 <main+0x31c>)
 80005fc:	2200      	movs	r2, #0
 80005fe:	0019      	movs	r1, r3
 8000600:	f7ff fe3b 	bl	800027a <GPIO_WriteBit>
			break;
 8000604:	e000      	b.n	8000608 <main+0x314>

		default:
			break;
 8000606:	46c0      	nop			; (mov r8, r8)
		if (!pause) {
 8000608:	e6c1      	b.n	800038e <main+0x9a>
 800060a:	46c0      	nop			; (mov r8, r8)
 800060c:	2000001c 	.word	0x2000001c
 8000610:	48000800 	.word	0x48000800
 8000614:	00002710 	.word	0x00002710
 8000618:	00030d40 	.word	0x00030d40
 800061c:	08000808 	.word	0x08000808

08000620 <Reset_Handler>:

  .section .text.Reset_Handler
  .weak Reset_Handler
  .type Reset_Handler, %function
Reset_Handler:
  ldr   r0, =_estack
 8000620:	480d      	ldr	r0, [pc, #52]	; (8000658 <LoopForever+0x2>)
  mov   sp, r0          /* set stack pointer */
 8000622:	4685      	mov	sp, r0

/* Copy the data segment initializers from flash to SRAM */
  movs r1, #0
 8000624:	2100      	movs	r1, #0
  b LoopCopyDataInit
 8000626:	e003      	b.n	8000630 <LoopCopyDataInit>

08000628 <CopyDataInit>:

CopyDataInit:
  ldr r3, =_sidata
 8000628:	4b0c      	ldr	r3, [pc, #48]	; (800065c <LoopForever+0x6>)
  ldr r3, [r3, r1]
 800062a:	585b      	ldr	r3, [r3, r1]
  str r3, [r0, r1]
 800062c:	5043      	str	r3, [r0, r1]
  adds r1, r1, #4
 800062e:	3104      	adds	r1, #4

08000630 <LoopCopyDataInit>:

LoopCopyDataInit:
  ldr r0, =_sdata
 8000630:	480b      	ldr	r0, [pc, #44]	; (8000660 <LoopForever+0xa>)
  ldr r3, =_edata
 8000632:	4b0c      	ldr	r3, [pc, #48]	; (8000664 <LoopForever+0xe>)
  adds r2, r0, r1
 8000634:	1842      	adds	r2, r0, r1
  cmp r2, r3
 8000636:	429a      	cmp	r2, r3
  bcc CopyDataInit
 8000638:	d3f6      	bcc.n	8000628 <CopyDataInit>
  ldr r2, =_sbss
 800063a:	4a0b      	ldr	r2, [pc, #44]	; (8000668 <LoopForever+0x12>)
  b LoopFillZerobss
 800063c:	e002      	b.n	8000644 <LoopFillZerobss>

0800063e <FillZerobss>:
/* Zero fill the bss segment. */
FillZerobss:
  movs r3, #0
 800063e:	2300      	movs	r3, #0
  str  r3, [r2]
 8000640:	6013      	str	r3, [r2, #0]
  adds r2, r2, #4
 8000642:	3204      	adds	r2, #4

08000644 <LoopFillZerobss>:


LoopFillZerobss:
  ldr r3, = _ebss
 8000644:	4b09      	ldr	r3, [pc, #36]	; (800066c <LoopForever+0x16>)
  cmp r2, r3
 8000646:	429a      	cmp	r2, r3
  bcc FillZerobss
 8000648:	d3f9      	bcc.n	800063e <FillZerobss>

/* Call the clock system intitialization function.*/
    bl  SystemInit
 800064a:	f000 f829 	bl	80006a0 <SystemInit>
/* Call static constructors */
    bl __libc_init_array
 800064e:	f000 f8b7 	bl	80007c0 <__libc_init_array>
/* Call the application's entry point.*/
  bl main
 8000652:	f7ff fe4f 	bl	80002f4 <main>

08000656 <LoopForever>:
  
LoopForever:
    b LoopForever
 8000656:	e7fe      	b.n	8000656 <LoopForever>
  ldr   r0, =_estack
 8000658:	20002000 	.word	0x20002000
  ldr r3, =_sidata
 800065c:	08000848 	.word	0x08000848
  ldr r0, =_sdata
 8000660:	20000000 	.word	0x20000000
  ldr r3, =_edata
 8000664:	20000000 	.word	0x20000000
  ldr r2, =_sbss
 8000668:	20000000 	.word	0x20000000
  ldr r3, = _ebss
 800066c:	20000024 	.word	0x20000024

08000670 <ADC1_COMP_IRQHandler>:
 * @retval : None
*/
    .section .text.Default_Handler,"ax",%progbits
Default_Handler:
Infinite_Loop:
  b Infinite_Loop
 8000670:	e7fe      	b.n	8000670 <ADC1_COMP_IRQHandler>

08000672 <NMI_Handler>:
  * @brief  This function handles NMI exception.
  * @param  None
  * @retval None
  */
void NMI_Handler(void)
{
 8000672:	b580      	push	{r7, lr}
 8000674:	af00      	add	r7, sp, #0
}
 8000676:	46c0      	nop			; (mov r8, r8)
 8000678:	46bd      	mov	sp, r7
 800067a:	bd80      	pop	{r7, pc}

0800067c <HardFault_Handler>:
  * @brief  This function handles Hard Fault exception.
  * @param  None
  * @retval None
  */
void HardFault_Handler(void)
{
 800067c:	b580      	push	{r7, lr}
 800067e:	af00      	add	r7, sp, #0
  /* Go to infinite loop when Hard Fault exception occurs */
  while (1)
 8000680:	e7fe      	b.n	8000680 <HardFault_Handler+0x4>

08000682 <SVC_Handler>:
  * @brief  This function handles SVCall exception.
  * @param  None
  * @retval None
  */
void SVC_Handler(void)
{
 8000682:	b580      	push	{r7, lr}
 8000684:	af00      	add	r7, sp, #0
}
 8000686:	46c0      	nop			; (mov r8, r8)
 8000688:	46bd      	mov	sp, r7
 800068a:	bd80      	pop	{r7, pc}

0800068c <PendSV_Handler>:
  * @brief  This function handles PendSVC exception.
  * @param  None
  * @retval None
  */
void PendSV_Handler(void)
{
 800068c:	b580      	push	{r7, lr}
 800068e:	af00      	add	r7, sp, #0
}
 8000690:	46c0      	nop			; (mov r8, r8)
 8000692:	46bd      	mov	sp, r7
 8000694:	bd80      	pop	{r7, pc}

08000696 <SysTick_Handler>:
  * @brief  This function handles SysTick Handler.
  * @param  None
  * @retval None
  */
void SysTick_Handler(void)
{
 8000696:	b580      	push	{r7, lr}
 8000698:	af00      	add	r7, sp, #0
}
 800069a:	46c0      	nop			; (mov r8, r8)
 800069c:	46bd      	mov	sp, r7
 800069e:	bd80      	pop	{r7, pc}

080006a0 <SystemInit>:
  *         SystemCoreClock variable.
  * @param  None
  * @retval None
  */
void SystemInit (void)
{    
 80006a0:	b580      	push	{r7, lr}
 80006a2:	af00      	add	r7, sp, #0
  /* Set HSION bit */
  RCC->CR |= (uint32_t)0x00000001;
 80006a4:	4b1b      	ldr	r3, [pc, #108]	; (8000714 <SystemInit+0x74>)
 80006a6:	4a1b      	ldr	r2, [pc, #108]	; (8000714 <SystemInit+0x74>)
 80006a8:	6812      	ldr	r2, [r2, #0]
 80006aa:	2101      	movs	r1, #1
 80006ac:	430a      	orrs	r2, r1
 80006ae:	601a      	str	r2, [r3, #0]

  /* Reset SW[1:0], HPRE[3:0], PPRE[2:0], ADCPRE and MCOSEL[2:0] bits */
  RCC->CFGR &= (uint32_t)0xF8FFB80C;
 80006b0:	4b18      	ldr	r3, [pc, #96]	; (8000714 <SystemInit+0x74>)
 80006b2:	4a18      	ldr	r2, [pc, #96]	; (8000714 <SystemInit+0x74>)
 80006b4:	6852      	ldr	r2, [r2, #4]
 80006b6:	4918      	ldr	r1, [pc, #96]	; (8000718 <SystemInit+0x78>)
 80006b8:	400a      	ands	r2, r1
 80006ba:	605a      	str	r2, [r3, #4]
  
  /* Reset HSEON, CSSON and PLLON bits */
  RCC->CR &= (uint32_t)0xFEF6FFFF;
 80006bc:	4b15      	ldr	r3, [pc, #84]	; (8000714 <SystemInit+0x74>)
 80006be:	4a15      	ldr	r2, [pc, #84]	; (8000714 <SystemInit+0x74>)
 80006c0:	6812      	ldr	r2, [r2, #0]
 80006c2:	4916      	ldr	r1, [pc, #88]	; (800071c <SystemInit+0x7c>)
 80006c4:	400a      	ands	r2, r1
 80006c6:	601a      	str	r2, [r3, #0]

  /* Reset HSEBYP bit */
  RCC->CR &= (uint32_t)0xFFFBFFFF;
 80006c8:	4b12      	ldr	r3, [pc, #72]	; (8000714 <SystemInit+0x74>)
 80006ca:	4a12      	ldr	r2, [pc, #72]	; (8000714 <SystemInit+0x74>)
 80006cc:	6812      	ldr	r2, [r2, #0]
 80006ce:	4914      	ldr	r1, [pc, #80]	; (8000720 <SystemInit+0x80>)
 80006d0:	400a      	ands	r2, r1
 80006d2:	601a      	str	r2, [r3, #0]

  /* Reset PLLSRC, PLLXTPRE and PLLMUL[3:0] bits */
  RCC->CFGR &= (uint32_t)0xFFC0FFFF;
 80006d4:	4b0f      	ldr	r3, [pc, #60]	; (8000714 <SystemInit+0x74>)
 80006d6:	4a0f      	ldr	r2, [pc, #60]	; (8000714 <SystemInit+0x74>)
 80006d8:	6852      	ldr	r2, [r2, #4]
 80006da:	4912      	ldr	r1, [pc, #72]	; (8000724 <SystemInit+0x84>)
 80006dc:	400a      	ands	r2, r1
 80006de:	605a      	str	r2, [r3, #4]

  /* Reset PREDIV1[3:0] bits */
  RCC->CFGR2 &= (uint32_t)0xFFFFFFF0;
 80006e0:	4b0c      	ldr	r3, [pc, #48]	; (8000714 <SystemInit+0x74>)
 80006e2:	4a0c      	ldr	r2, [pc, #48]	; (8000714 <SystemInit+0x74>)
 80006e4:	6ad2      	ldr	r2, [r2, #44]	; 0x2c
 80006e6:	210f      	movs	r1, #15
 80006e8:	438a      	bics	r2, r1
 80006ea:	62da      	str	r2, [r3, #44]	; 0x2c

  /* Reset USARTSW[1:0], I2CSW, CECSW and ADCSW bits */
  RCC->CFGR3 &= (uint32_t)0xFFFFFEAC;
 80006ec:	4b09      	ldr	r3, [pc, #36]	; (8000714 <SystemInit+0x74>)
 80006ee:	4a09      	ldr	r2, [pc, #36]	; (8000714 <SystemInit+0x74>)
 80006f0:	6b12      	ldr	r2, [r2, #48]	; 0x30
 80006f2:	490d      	ldr	r1, [pc, #52]	; (8000728 <SystemInit+0x88>)
 80006f4:	400a      	ands	r2, r1
 80006f6:	631a      	str	r2, [r3, #48]	; 0x30

  /* Reset HSI14 bit */
  RCC->CR2 &= (uint32_t)0xFFFFFFFE;
 80006f8:	4b06      	ldr	r3, [pc, #24]	; (8000714 <SystemInit+0x74>)
 80006fa:	4a06      	ldr	r2, [pc, #24]	; (8000714 <SystemInit+0x74>)
 80006fc:	6b52      	ldr	r2, [r2, #52]	; 0x34
 80006fe:	2101      	movs	r1, #1
 8000700:	438a      	bics	r2, r1
 8000702:	635a      	str	r2, [r3, #52]	; 0x34

  /* Disable all interrupts */
  RCC->CIR = 0x00000000;
 8000704:	4b03      	ldr	r3, [pc, #12]	; (8000714 <SystemInit+0x74>)
 8000706:	2200      	movs	r2, #0
 8000708:	609a      	str	r2, [r3, #8]

  /* Configure the System clock frequency, AHB/APBx prescalers and Flash settings */
  SetSysClock();
 800070a:	f000 f80f 	bl	800072c <SetSysClock>
}
 800070e:	46c0      	nop			; (mov r8, r8)
 8000710:	46bd      	mov	sp, r7
 8000712:	bd80      	pop	{r7, pc}
 8000714:	40021000 	.word	0x40021000
 8000718:	f8ffb80c 	.word	0xf8ffb80c
 800071c:	fef6ffff 	.word	0xfef6ffff
 8000720:	fffbffff 	.word	0xfffbffff
 8000724:	ffc0ffff 	.word	0xffc0ffff
 8000728:	fffffeac 	.word	0xfffffeac

0800072c <SetSysClock>:
  *         is reset to the default reset state (done in SystemInit() function).
  * @param  None
  * @retval None
  */
static void SetSysClock(void)
{
 800072c:	b580      	push	{r7, lr}
 800072e:	b082      	sub	sp, #8
 8000730:	af00      	add	r7, sp, #0
  __IO uint32_t StartUpCounter = 0, HSEStatus = 0;
 8000732:	2300      	movs	r3, #0
 8000734:	607b      	str	r3, [r7, #4]
 8000736:	2300      	movs	r3, #0
 8000738:	603b      	str	r3, [r7, #0]
  /* SYSCLK, HCLK, PCLK configuration ----------------------------------------*/
#if defined (PLL_SOURCE_HSI)
  /* At this stage the HSI is already enabled */

  /* Enable Prefetch Buffer and set Flash Latency */
  FLASH->ACR = FLASH_ACR_PRFTBE | FLASH_ACR_LATENCY;
 800073a:	4b1e      	ldr	r3, [pc, #120]	; (80007b4 <SetSysClock+0x88>)
 800073c:	2211      	movs	r2, #17
 800073e:	601a      	str	r2, [r3, #0]
 
  /* HCLK = SYSCLK */
  RCC->CFGR |= (uint32_t)RCC_CFGR_HPRE_DIV1;
 8000740:	4b1d      	ldr	r3, [pc, #116]	; (80007b8 <SetSysClock+0x8c>)
 8000742:	4a1d      	ldr	r2, [pc, #116]	; (80007b8 <SetSysClock+0x8c>)
 8000744:	6852      	ldr	r2, [r2, #4]
 8000746:	605a      	str	r2, [r3, #4]
      
  /* PCLK = HCLK */
  RCC->CFGR |= (uint32_t)RCC_CFGR_PPRE_DIV1;
 8000748:	4b1b      	ldr	r3, [pc, #108]	; (80007b8 <SetSysClock+0x8c>)
 800074a:	4a1b      	ldr	r2, [pc, #108]	; (80007b8 <SetSysClock+0x8c>)
 800074c:	6852      	ldr	r2, [r2, #4]
 800074e:	605a      	str	r2, [r3, #4]

  /* PLL configuration = (HSI/2) * 12 = ~48 MHz */
  RCC->CFGR &= (uint32_t)((uint32_t)~(RCC_CFGR_PLLSRC | RCC_CFGR_PLLXTPRE | RCC_CFGR_PLLMULL));
 8000750:	4b19      	ldr	r3, [pc, #100]	; (80007b8 <SetSysClock+0x8c>)
 8000752:	4a19      	ldr	r2, [pc, #100]	; (80007b8 <SetSysClock+0x8c>)
 8000754:	6852      	ldr	r2, [r2, #4]
 8000756:	4919      	ldr	r1, [pc, #100]	; (80007bc <SetSysClock+0x90>)
 8000758:	400a      	ands	r2, r1
 800075a:	605a      	str	r2, [r3, #4]
  RCC->CFGR |= (uint32_t)(RCC_CFGR_PLLSRC_HSI_Div2 | RCC_CFGR_PLLXTPRE_PREDIV1 | RCC_CFGR_PLLMULL12);
 800075c:	4b16      	ldr	r3, [pc, #88]	; (80007b8 <SetSysClock+0x8c>)
 800075e:	4a16      	ldr	r2, [pc, #88]	; (80007b8 <SetSysClock+0x8c>)
 8000760:	6852      	ldr	r2, [r2, #4]
 8000762:	21a0      	movs	r1, #160	; 0xa0
 8000764:	0389      	lsls	r1, r1, #14
 8000766:	430a      	orrs	r2, r1
 8000768:	605a      	str	r2, [r3, #4]
            
  /* Enable PLL */
  RCC->CR |= RCC_CR_PLLON;
 800076a:	4b13      	ldr	r3, [pc, #76]	; (80007b8 <SetSysClock+0x8c>)
 800076c:	4a12      	ldr	r2, [pc, #72]	; (80007b8 <SetSysClock+0x8c>)
 800076e:	6812      	ldr	r2, [r2, #0]
 8000770:	2180      	movs	r1, #128	; 0x80
 8000772:	0449      	lsls	r1, r1, #17
 8000774:	430a      	orrs	r2, r1
 8000776:	601a      	str	r2, [r3, #0]

  /* Wait till PLL is ready */
  while((RCC->CR & RCC_CR_PLLRDY) == 0)
 8000778:	46c0      	nop			; (mov r8, r8)
 800077a:	4b0f      	ldr	r3, [pc, #60]	; (80007b8 <SetSysClock+0x8c>)
 800077c:	681a      	ldr	r2, [r3, #0]
 800077e:	2380      	movs	r3, #128	; 0x80
 8000780:	049b      	lsls	r3, r3, #18
 8000782:	4013      	ands	r3, r2
 8000784:	d0f9      	beq.n	800077a <SetSysClock+0x4e>
  {
  }

  /* Select PLL as system clock source */
  RCC->CFGR &= (uint32_t)((uint32_t)~(RCC_CFGR_SW));
 8000786:	4b0c      	ldr	r3, [pc, #48]	; (80007b8 <SetSysClock+0x8c>)
 8000788:	4a0b      	ldr	r2, [pc, #44]	; (80007b8 <SetSysClock+0x8c>)
 800078a:	6852      	ldr	r2, [r2, #4]
 800078c:	2103      	movs	r1, #3
 800078e:	438a      	bics	r2, r1
 8000790:	605a      	str	r2, [r3, #4]
  RCC->CFGR |= (uint32_t)RCC_CFGR_SW_PLL;    
 8000792:	4b09      	ldr	r3, [pc, #36]	; (80007b8 <SetSysClock+0x8c>)
 8000794:	4a08      	ldr	r2, [pc, #32]	; (80007b8 <SetSysClock+0x8c>)
 8000796:	6852      	ldr	r2, [r2, #4]
 8000798:	2102      	movs	r1, #2
 800079a:	430a      	orrs	r2, r1
 800079c:	605a      	str	r2, [r3, #4]

  /* Wait till PLL is used as system clock source */
  while ((RCC->CFGR & (uint32_t)RCC_CFGR_SWS) != (uint32_t)RCC_CFGR_SWS_PLL)
 800079e:	46c0      	nop			; (mov r8, r8)
 80007a0:	4b05      	ldr	r3, [pc, #20]	; (80007b8 <SetSysClock+0x8c>)
 80007a2:	685b      	ldr	r3, [r3, #4]
 80007a4:	220c      	movs	r2, #12
 80007a6:	4013      	ands	r3, r2
 80007a8:	2b08      	cmp	r3, #8
 80007aa:	d1f9      	bne.n	80007a0 <SetSysClock+0x74>
  else
  { /* If HSE fails to start-up, the application will have wrong clock 
         configuration. User can add here some code to deal with this error */
  }  
#endif /* PLL_SOURCE_HSI */  
}
 80007ac:	46c0      	nop			; (mov r8, r8)
 80007ae:	46bd      	mov	sp, r7
 80007b0:	b002      	add	sp, #8
 80007b2:	bd80      	pop	{r7, pc}
 80007b4:	40022000 	.word	0x40022000
 80007b8:	40021000 	.word	0x40021000
 80007bc:	ffc0ffff 	.word	0xffc0ffff

080007c0 <__libc_init_array>:
 80007c0:	b570      	push	{r4, r5, r6, lr}
 80007c2:	2600      	movs	r6, #0
 80007c4:	4d0c      	ldr	r5, [pc, #48]	; (80007f8 <__libc_init_array+0x38>)
 80007c6:	4c0d      	ldr	r4, [pc, #52]	; (80007fc <__libc_init_array+0x3c>)
 80007c8:	1b64      	subs	r4, r4, r5
 80007ca:	10a4      	asrs	r4, r4, #2
 80007cc:	42a6      	cmp	r6, r4
 80007ce:	d109      	bne.n	80007e4 <__libc_init_array+0x24>
 80007d0:	2600      	movs	r6, #0
 80007d2:	f000 f829 	bl	8000828 <_init>
 80007d6:	4d0a      	ldr	r5, [pc, #40]	; (8000800 <__libc_init_array+0x40>)
 80007d8:	4c0a      	ldr	r4, [pc, #40]	; (8000804 <__libc_init_array+0x44>)
 80007da:	1b64      	subs	r4, r4, r5
 80007dc:	10a4      	asrs	r4, r4, #2
 80007de:	42a6      	cmp	r6, r4
 80007e0:	d105      	bne.n	80007ee <__libc_init_array+0x2e>
 80007e2:	bd70      	pop	{r4, r5, r6, pc}
 80007e4:	00b3      	lsls	r3, r6, #2
 80007e6:	58eb      	ldr	r3, [r5, r3]
 80007e8:	4798      	blx	r3
 80007ea:	3601      	adds	r6, #1
 80007ec:	e7ee      	b.n	80007cc <__libc_init_array+0xc>
 80007ee:	00b3      	lsls	r3, r6, #2
 80007f0:	58eb      	ldr	r3, [r5, r3]
 80007f2:	4798      	blx	r3
 80007f4:	3601      	adds	r6, #1
 80007f6:	e7f2      	b.n	80007de <__libc_init_array+0x1e>
 80007f8:	08000840 	.word	0x08000840
 80007fc:	08000840 	.word	0x08000840
 8000800:	08000840 	.word	0x08000840
 8000804:	08000844 	.word	0x08000844
 8000808:	08000456 	.word	0x08000456
 800080c:	0800048c 	.word	0x0800048c
 8000810:	080004c2 	.word	0x080004c2
 8000814:	080004f8 	.word	0x080004f8
 8000818:	0800052e 	.word	0x0800052e
 800081c:	08000564 	.word	0x08000564
 8000820:	0800059a 	.word	0x0800059a
 8000824:	080005d0 	.word	0x080005d0

08000828 <_init>:
 8000828:	b5f8      	push	{r3, r4, r5, r6, r7, lr}
 800082a:	46c0      	nop			; (mov r8, r8)
 800082c:	bcf8      	pop	{r3, r4, r5, r6, r7}
 800082e:	bc08      	pop	{r3}
 8000830:	469e      	mov	lr, r3
 8000832:	4770      	bx	lr

08000834 <_fini>:
 8000834:	b5f8      	push	{r3, r4, r5, r6, r7, lr}
 8000836:	46c0      	nop			; (mov r8, r8)
 8000838:	bcf8      	pop	{r3, r4, r5, r6, r7}
 800083a:	bc08      	pop	{r3}
 800083c:	469e      	mov	lr, r3
 800083e:	4770      	bx	lr
